target datalayout = "e-m:e-p270:32:32-p271:32:32-p272:64:64-i64:64-i128:128-f80:128-n8:16:32:64-S128"
target triple = "x86_64-unknown-linux-gnu"

%struct.QTailQLink = type { ptr, ptr }
%struct.AddressSpace = type { %struct.rcu_head, ptr, ptr, ptr, i32, i32, ptr, %union.anon.18, %union.anon.19 }
%struct.rcu_head = type { ptr, ptr }
%union.anon.18 = type { %struct.QTailQLink }
%union.anon.19 = type { %struct.QTailQLink }
%struct.MemTxAttrs = type { i32 }

@address_space_memory = dso_local global %struct.AddressSpace zeroinitializer, align 8

; Function Attrs: nounwind sspstrong uwtable
define dso_local i32 @address_space_rw(ptr noundef %as, i64 noundef %addr, i32 %attrs.coerce, ptr noundef %buf, i64 noundef %len, i1 noundef zeroext %is_write) #0 {
entry:
  %retval = alloca i32, align 4
  %attrs = alloca %struct.MemTxAttrs, align 4
  %as.addr = alloca ptr, align 8
  %addr.addr = alloca i64, align 8
  %buf.addr = alloca ptr, align 8
  %len.addr = alloca i64, align 8
  %is_write.addr = alloca i8, align 1
  %coerce.dive = getelementptr inbounds %struct.MemTxAttrs, ptr %attrs, i32 0, i32 0
  store i32 %attrs.coerce, ptr %coerce.dive, align 4
  store ptr %as, ptr %as.addr, align 8
  store i64 %addr, ptr %addr.addr, align 8
  store ptr %buf, ptr %buf.addr, align 8
  store i64 %len, ptr %len.addr, align 8
  %frombool = zext i1 %is_write to i8
  store i8 %frombool, ptr %is_write.addr, align 1
  %0 = load i8, ptr %is_write.addr, align 1
  %tobool = trunc i8 %0 to i1
  br i1 %tobool, label %if.then, label %if.else

if.then:                                          ; preds = %entry
  %1 = load ptr, ptr %as.addr, align 8
  %2 = load i64, ptr %addr.addr, align 8
  %3 = load ptr, ptr %buf.addr, align 8
  %4 = load i64, ptr %len.addr, align 8
  %coerce.dive1 = getelementptr inbounds %struct.MemTxAttrs, ptr %attrs, i32 0, i32 0
  %5 = load i32, ptr %coerce.dive1, align 4
  %call = call i32 @address_space_write(ptr noundef %1, i64 noundef %2, i32 %5, ptr noundef %3, i64 noundef %4)
  store i32 %call, ptr %retval, align 4
  br label %return

if.else:                                          ; preds = %entry
  %6 = load ptr, ptr %as.addr, align 8
  %7 = load i64, ptr %addr.addr, align 8
  %8 = load ptr, ptr %buf.addr, align 8
  %9 = load i64, ptr %len.addr, align 8
  %coerce.dive2 = getelementptr inbounds %struct.MemTxAttrs, ptr %attrs, i32 0, i32 0
  %10 = load i32, ptr %coerce.dive2, align 4
  %call3 = call i32 @address_space_read_full(ptr noundef %6, i64 noundef %7, i32 %10, ptr noundef %8, i64 noundef %9)
  store i32 %call3, ptr %retval, align 4
  br label %return

return:                                           ; preds = %if.else, %if.then
  %11 = load i32, ptr %retval, align 4
  ret i32 %11
}

; Function Attrs: nounwind sspstrong uwtable
define dso_local void @cpu_physical_memory_rw(i64 noundef %addr, ptr noundef %buf, i64 noundef %len, i1 noundef zeroext %is_write) #0 {
entry:
  %addr.addr = alloca i64, align 8
  %buf.addr = alloca ptr, align 8
  %len.addr = alloca i64, align 8
  %is_write.addr = alloca i8, align 1
  %.compoundliteral = alloca %struct.MemTxAttrs, align 4
  store i64 %addr, ptr %addr.addr, align 8
  store ptr %buf, ptr %buf.addr, align 8
  store i64 %len, ptr %len.addr, align 8
  %frombool = zext i1 %is_write to i8
  store i8 %frombool, ptr %is_write.addr, align 1
  %0 = load i64, ptr %addr.addr, align 8
  %bf.load = load i32, ptr %.compoundliteral, align 4
  %bf.clear = and i32 %bf.load, -2
  %bf.set = or i32 %bf.clear, 1
  store i32 %bf.set, ptr %.compoundliteral, align 4
  %bf.load1 = load i32, ptr %.compoundliteral, align 4
  %bf.clear2 = and i32 %bf.load1, -3
  %bf.set3 = or i32 %bf.clear2, 0
  store i32 %bf.set3, ptr %.compoundliteral, align 4
  %bf.load4 = load i32, ptr %.compoundliteral, align 4
  %bf.clear5 = and i32 %bf.load4, -13
  %bf.set6 = or i32 %bf.clear5, 0
  store i32 %bf.set6, ptr %.compoundliteral, align 4
  %bf.load7 = load i32, ptr %.compoundliteral, align 4
  %bf.clear8 = and i32 %bf.load7, -17
  %bf.set9 = or i32 %bf.clear8, 0
  store i32 %bf.set9, ptr %.compoundliteral, align 4
  %bf.load10 = load i32, ptr %.compoundliteral, align 4
  %bf.clear11 = and i32 %bf.load10, -33
  %bf.set12 = or i32 %bf.clear11, 0
  store i32 %bf.set12, ptr %.compoundliteral, align 4
  %bf.load13 = load i32, ptr %.compoundliteral, align 4
  %bf.clear14 = and i32 %bf.load13, -4194241
  %bf.set15 = or i32 %bf.clear14, 0
  store i32 %bf.set15, ptr %.compoundliteral, align 4
  %bf.load16 = load i32, ptr %.compoundliteral, align 4
  %bf.clear17 = and i32 %bf.load16, -4194305
  %bf.set18 = or i32 %bf.clear17, 0
  store i32 %bf.set18, ptr %.compoundliteral, align 4
  %bf.load19 = load i32, ptr %.compoundliteral, align 4
  %bf.clear20 = and i32 %bf.load19, -8388609
  %bf.set21 = or i32 %bf.clear20, 0
  store i32 %bf.set21, ptr %.compoundliteral, align 4
  %bf.load22 = load i32, ptr %.compoundliteral, align 4
  %bf.clear23 = and i32 %bf.load22, -16777217
  %bf.set24 = or i32 %bf.clear23, 0
  store i32 %bf.set24, ptr %.compoundliteral, align 4
  %bf.load25 = load i32, ptr %.compoundliteral, align 4
  %bf.clear26 = and i32 %bf.load25, -33554433
  %bf.set27 = or i32 %bf.clear26, 0
  store i32 %bf.set27, ptr %.compoundliteral, align 4
  %1 = load ptr, ptr %buf.addr, align 8
  %2 = load i64, ptr %len.addr, align 8
  %3 = load i8, ptr %is_write.addr, align 1
  %tobool = trunc i8 %3 to i1
  %coerce.dive = getelementptr inbounds %struct.MemTxAttrs, ptr %.compoundliteral, i32 0, i32 0
  %4 = load i32, ptr %coerce.dive, align 4
  %call = call i32 @address_space_rw(ptr noundef @address_space_memory, i64 noundef %0, i32 %4, ptr noundef %1, i64 noundef %2, i1 noundef zeroext %tobool)
  ret void
}