; Function Attrs: nounwind sspstrong uwtable
define dso_local void @cpu_physical_memory_rw(i64 noundef %addr, ptr noundef captures(none) %buf, i64 noundef %len, i1 noundef zeroext %is_write) local_unnamed_addr #0 {
entry:
  br i1 %is_write, label %if.then.i, label %if.else.i

if.then.i:                                        ; preds = %entry
  %call.i = tail call i32 @address_space_write(ptr noundef nonnull @address_space_memory, i64 noundef %addr, i32 1, ptr noundef %buf, i64 noundef %len)
  br label %address_space_rw.exit

if.else.i:                                        ; preds = %entry
  %call3.i = tail call i32 @address_space_read_full(ptr noundef nonnull @address_space_memory, i64 noundef %addr, i32 1, ptr noundef %buf, i64 noundef %len)
  br label %address_space_rw.exit

address_space_rw.exit:                            ; preds = %if.then.i, %if.else.i
  ret void
}